target datalayout = "e-m:e-p270:32:32-p271:32:32-p272:64:64-i64:64-i128:128-f80:128-n8:16:32:64-S128"
target triple = "x86_64-unknown-linux-gnu"

%"class.boost::shared_ptr.10" = type { ptr, %"class.boost::detail::shared_count" }
%"class.boost::detail::shared_count" = type { ptr }
%"class.std::vector.16" = type { %"struct.std::_Vector_base.17" }
%"struct.std::_Vector_base.17" = type { %"struct.std::_Vector_base<double, std::allocator<double>>::_Vector_impl" }
%"struct.std::_Vector_base<double, std::allocator<double>>::_Vector_impl" = type { %"struct.std::_Vector_base<double, std::allocator<double>>::_Vector_impl_data" }
%"struct.std::_Vector_base<double, std::allocator<double>>::_Vector_impl_data" = type { ptr, ptr, ptr }
%"class.QuantLib::LogNormalCmSwapRatePc" = type { %"class.QuantLib::MarketModelEvolver", i64, %"class.boost::shared_ptr.6", %"class.std::vector", i64, %"class.boost::shared_ptr.10", %"class.std::vector.11", i64, i64, %"class.QuantLib::CMSwapCurveState", i64, %"class.std::vector.16", %"class.std::vector.16", %"class.std::vector.16", %"class.std::vector.16", %"class.std::vector.16", %"class.std::vector.16", %"class.std::vector.16", %"class.std::vector.16", %"class.std::vector.16", %"class.std::vector", %"class.std::vector.21" }
%"class.QuantLib::MarketModelEvolver" = type { ptr }
%"class.boost::shared_ptr.6" = type { ptr, %"class.boost::detail::shared_count" }
%"class.std::vector.11" = type { %"struct.std::_Vector_base.12" }
%"struct.std::_Vector_base.12" = type { %"struct.std::_Vector_base<std::vector<double>, std::allocator<std::vector<double>>>::_Vector_impl" }
%"struct.std::_Vector_base<std::vector<double>, std::allocator<std::vector<double>>>::_Vector_impl" = type { %"struct.std::_Vector_base<std::vector<double>, std::allocator<std::vector<double>>>::_Vector_impl_data" }
%"struct.std::_Vector_base<std::vector<double>, std::allocator<std::vector<double>>>::_Vector_impl_data" = type { ptr, ptr, ptr }
%"class.QuantLib::CMSwapCurveState" = type { %"class.QuantLib::CurveState", i64, i64, %"class.std::vector.16", %"class.std::vector.16", %"class.std::vector.16", %"class.std::vector.16", %"class.std::vector.16", %"class.std::vector.16", %"class.std::vector.16", %"class.std::vector.16" }
%"class.QuantLib::CurveState" = type { ptr, i64, %"class.std::vector.16", %"class.std::vector.16" }
%"class.std::vector" = type { %"struct.std::_Vector_base" }
%"struct.std::_Vector_base" = type { %"struct.std::_Vector_base<unsigned long, std::allocator<unsigned long>>::_Vector_impl" }
%"struct.std::_Vector_base<unsigned long, std::allocator<unsigned long>>::_Vector_impl" = type { %"struct.std::_Vector_base<unsigned long, std::allocator<unsigned long>>::_Vector_impl_data" }
%"struct.std::_Vector_base<unsigned long, std::allocator<unsigned long>>::_Vector_impl_data" = type { ptr, ptr, ptr }
%"class.std::vector.21" = type { %"struct.std::_Vector_base.22" }
%"struct.std::_Vector_base.22" = type { %"struct.std::_Vector_base<QuantLib::CMSMMDriftCalculator, std::allocator<QuantLib::CMSMMDriftCalculator>>::_Vector_impl" }
%"struct.std::_Vector_base<QuantLib::CMSMMDriftCalculator, std::allocator<QuantLib::CMSMMDriftCalculator>>::_Vector_impl" = type { %"struct.std::_Vector_base<QuantLib::CMSMMDriftCalculator, std::allocator<QuantLib::CMSMMDriftCalculator>>::_Vector_impl_data" }
%"struct.std::_Vector_base<QuantLib::CMSMMDriftCalculator, std::allocator<QuantLib::CMSMMDriftCalculator>>::_Vector_impl_data" = type { ptr, ptr, ptr }

@_ZTIN8QuantLib10CurveStateE = linkonce_odr constant { ptr, ptr } { ptr getelementptr inbounds (ptr, ptr @_ZTVN10__cxxabiv117__class_type_infoE, i64 2), ptr @_ZTSN8QuantLib10CurveStateE }, comdat, align 8
@_ZTIN8QuantLib16CMSwapCurveStateE = external constant ptr

; Function Attrs: mustprogress uwtable
define void @_ZN8QuantLib21LogNormalCmSwapRatePc15setInitialStateERKNS_10CurveStateE(ptr noundef nonnull align 8 dereferenceable(664) %this, ptr noundef nonnull align 8 dereferenceable(64) %cs) unnamed_addr #3 align 2 {
entry:
  %this.addr = alloca ptr, align 8
  %cs.addr = alloca ptr, align 8
  %cotcs = alloca ptr, align 8
  %swapRates = alloca ptr, align 8
  store ptr %this, ptr %this.addr, align 8, !tbaa !3
  store ptr %cs, ptr %cs.addr, align 8, !tbaa !3
  %this1 = load ptr, ptr %this.addr, align 8
  call void @llvm.lifetime.start.p0(i64 8, ptr %cotcs) #17
  %0 = load ptr, ptr %cs.addr, align 8, !tbaa !3
  %1 = icmp eq ptr %0, null
  br i1 %1, label %dynamic_cast.null, label %dynamic_cast.notnull

dynamic_cast.notnull:                             ; preds = %entry
  %2 = call ptr @__dynamic_cast(ptr %0, ptr @_ZTIN8QuantLib10CurveStateE, ptr @_ZTIN8QuantLib16CMSwapCurveStateE, i64 0) #17
  br label %dynamic_cast.end

dynamic_cast.null:                                ; preds = %entry
  br label %dynamic_cast.end

dynamic_cast.end:                                 ; preds = %dynamic_cast.null, %dynamic_cast.notnull
  %3 = phi ptr [ %2, %dynamic_cast.notnull ], [ null, %dynamic_cast.null ]
  store ptr %3, ptr %cotcs, align 8, !tbaa !3
  call void @llvm.lifetime.start.p0(i64 8, ptr %swapRates) #17
  %4 = load ptr, ptr %cotcs, align 8, !tbaa !3
  %spanningForwards_ = getelementptr inbounds nuw %"class.QuantLib::LogNormalCmSwapRatePc", ptr %this1, i32 0, i32 1
  %5 = load i64, ptr %spanningForwards_, align 8, !tbaa !11
  %vtable = load ptr, ptr %4, align 8, !tbaa !9
  %vfn = getelementptr inbounds ptr, ptr %vtable, i64 10
  %6 = load ptr, ptr %vfn, align 8
  %call = call noundef nonnull align 8 dereferenceable(24) ptr %6(ptr noundef nonnull align 8 dereferenceable(272) %4, i64 noundef %5)
  store ptr %call, ptr %swapRates, align 8, !tbaa !3
  %7 = load ptr, ptr %swapRates, align 8, !tbaa !3
  call void @_ZN8QuantLib21LogNormalCmSwapRatePc14setCMSwapRatesERKSt6vectorIdSaIdEE(ptr noundef nonnull align 8 dereferenceable(664) %this1, ptr noundef nonnull align 8 dereferenceable(24) %7)
  call void @llvm.lifetime.end.p0(i64 8, ptr %swapRates) #17
  call void @llvm.lifetime.end.p0(i64 8, ptr %cotcs) #17
  ret void
}