; Function Attrs: mustprogress uwtable
define void @_ZN8QuantLib21LogNormalCmSwapRatePc15setInitialStateERKNS_10CurveStateE(ptr noundef nonnull align 8 dereferenceable(664) %this, ptr noundef nonnull align 8 dereferenceable(64) %cs) unnamed_addr #4 align 2 {
entry:
  %0 = tail call ptr @__dynamic_cast(ptr nonnull %cs, ptr nonnull @_ZTIN8QuantLib10CurveStateE, ptr nonnull @_ZTIN8QuantLib16CMSwapCurveStateE, i64 0) #24
  %spanningForwards_ = getelementptr inbounds nuw i8, ptr %this, i64 8
  %1 = load i64, ptr %spanningForwards_, align 8, !tbaa !9
  %vtable = load ptr, ptr %0, align 8, !tbaa !7
  %vfn = getelementptr inbounds i8, ptr %vtable, i64 80
  %2 = load ptr, ptr %vfn, align 8
  %call = tail call noundef nonnull align 8 dereferenceable(24) ptr %2(ptr noundef nonnull align 8 dereferenceable(272) %0, i64 noundef %1)
  tail call void @_ZN8QuantLib21LogNormalCmSwapRatePc14setCMSwapRatesERKSt6vectorIdSaIdEE(ptr noundef nonnull align 8 dereferenceable(664) %this, ptr noundef nonnull align 8 dereferenceable(24) %call)
  ret void
}